; Function Attrs: nofree norecurse nosync nounwind memory(readwrite, inaccessiblemem: none) uwtable
define internal noundef i32 @unpack_16bit_3chan_planar(ptr noundef readonly captures(none) %0) #1 {
  %2 = getelementptr inbounds nuw i8, ptr %0, i64 44
  %3 = load i32, ptr %2, align 4, !tbaa !16
  %4 = getelementptr inbounds nuw i8, ptr %0, i64 100
  %5 = load i32, ptr %4, align 4, !tbaa !17
  %6 = sub nsw i32 %3, %5
  %7 = getelementptr inbounds nuw i8, ptr %0, i64 96
  %8 = load i32, ptr %7, align 8, !tbaa !19
  %9 = icmp slt i32 %8, %6
  br i1 %9, label %.lr.ph, label %._crit_edge

.lr.ph:                                           ; preds = %1
  %10 = getelementptr inbounds nuw i8, ptr %0, i64 136
  %11 = load ptr, ptr %10, align 8, !tbaa !21
  %12 = getelementptr inbounds nuw i8, ptr %0, i64 8
  %13 = load ptr, ptr %12, align 8, !tbaa !22
  %14 = getelementptr inbounds nuw i8, ptr %13, i64 12
  %15 = load i32, ptr %14, align 4, !tbaa !65
  %16 = mul i32 %15, 6
  %17 = mul i32 %16, %8
  %18 = sext i32 %17 to i64
  %19 = getelementptr inbounds i8, ptr %11, i64 %18
  %20 = getelementptr inbounds nuw i8, ptr %13, i64 136
  %21 = load ptr, ptr %20, align 8, !tbaa !3
  %22 = getelementptr inbounds nuw i8, ptr %13, i64 88
  %23 = load ptr, ptr %22, align 8, !tbaa !3
  %24 = getelementptr inbounds nuw i8, ptr %13, i64 40
  %25 = load ptr, ptr %24, align 8, !tbaa !3
  %26 = getelementptr inbounds nuw i8, ptr %13, i64 132
  %27 = load i32, ptr %26, align 4, !tbaa !32
  %28 = getelementptr inbounds nuw i8, ptr %13, i64 84
  %29 = load i32, ptr %28, align 4, !tbaa !32
  %30 = getelementptr inbounds nuw i8, ptr %13, i64 36
  %31 = load i32, ptr %30, align 4, !tbaa !32
  %32 = sext i32 %15 to i64
  %33 = sext i32 %16 to i64
  %34 = shl nsw i64 %32, 1
  %35 = sext i32 %31 to i64
  %36 = sext i32 %29 to i64
  %37 = sext i32 %27 to i64
  br label %38

._crit_edge:                                      ; preds = %38, %1
  ret i32 0

38:                                               ; preds = %.lr.ph, %38
  %.046 = phi i32 [ %8, %.lr.ph ], [ %45, %38 ]
  %.03845 = phi ptr [ %19, %.lr.ph ], [ %41, %38 ]
  %.03944 = phi ptr [ %25, %.lr.ph ], [ %42, %38 ]
  %.04043 = phi ptr [ %23, %.lr.ph ], [ %43, %38 ]
  %.04142 = phi ptr [ %21, %.lr.ph ], [ %44, %38 ]
  %39 = getelementptr inbounds i16, ptr %.03845, i64 %32
  %40 = getelementptr inbounds i16, ptr %39, i64 %32
  %41 = getelementptr inbounds i8, ptr %.03845, i64 %33
  tail call void @llvm.memcpy.p0.p0.i64(ptr align 1 %.03944, ptr align 2 %.03845, i64 %34, i1 false)
  tail call void @llvm.memcpy.p0.p0.i64(ptr align 1 %.04043, ptr align 2 %39, i64 %34, i1 false)
  tail call void @llvm.memcpy.p0.p0.i64(ptr align 1 %.04142, ptr align 2 %40, i64 %34, i1 false)
  %42 = getelementptr inbounds i8, ptr %.03944, i64 %35
  %43 = getelementptr inbounds i8, ptr %.04043, i64 %36
  %44 = getelementptr inbounds i8, ptr %.04142, i64 %37
  %45 = add nsw i32 %.046, 1
  %46 = icmp slt i32 %45, %6
  br i1 %46, label %38, label %._crit_edge, !llvm.loop !99
}